#include <math.h>
#include <stdio.h>
#include <stdlib.h>
#include <string.h>
#include <iostream>
using namespace std;

//****************************
//*????
int main()
{
	int m,n;
	double sum=0,a,b;
	int i,k,p;
	cin>>m;
	for(i=1;i<=m;i++)
	{
		cin>>n;                //??for????n?
		sum=0;a=2;b=1;
		for(k=1;k<=n;k++)
		{
			sum=sum+a/b;
			p=a;
			a=a+b;
			b=p;                      //?????n??
     	}
		printf("%.3f\n",sum);
	}
	return 0;
}